; Function Attrs: nounwind uwtable
define noalias noundef ptr @Wlc_StdinCollectProblem(ptr noundef readonly captures(none) %0) local_unnamed_addr #2 {
  %2 = tail call i64 @strlen(ptr noundef nonnull dereferenceable(1) %0) #19
  %3 = trunc i64 %2 to i32
  %4 = tail call noalias dereferenceable_or_null(16) ptr @malloc(i64 noundef 16) #16
  %5 = getelementptr inbounds nuw i8, ptr %4, i64 4
  store i32 0, ptr %5, align 4, !tbaa !14
  store i32 1000, ptr %4, align 8, !tbaa !8
  %6 = tail call noalias dereferenceable_or_null(1000) ptr @malloc(i64 noundef 1000) #16
  %7 = getelementptr inbounds nuw i8, ptr %4, i64 8
  store ptr %6, ptr %7, align 8, !tbaa !13
  %8 = load ptr, ptr @stdin, align 8, !tbaa !33
  %9 = tail call i32 @fgetc(ptr noundef %8)
  %.not19 = icmp eq i32 %9, -1
  br i1 %.not19, label %.Vec_StrGrow.exit10_crit_edge.i10, label %.lr.ph

.lr.ph:                                           ; preds = %1
  %sext = shl i64 %2, 32
  %10 = ashr exact i64 %sext, 32
  %11 = sub nsw i64 0, %10
  br label %12

12:                                               ; preds = %.lr.ph, %Wlc_StdinCollectStop.exit.thread
  %13 = phi i32 [ %9, %.lr.ph ], [ %49, %Wlc_StdinCollectStop.exit.thread ]
  %14 = trunc i32 %13 to i8
  %15 = load i32, ptr %5, align 4, !tbaa !14
  %16 = load i32, ptr %4, align 8, !tbaa !8
  %17 = icmp eq i32 %15, %16
  br i1 %17, label %18, label %.Vec_StrGrow.exit10_crit_edge.i

.Vec_StrGrow.exit10_crit_edge.i:                  ; preds = %12
  %.pre.i = load ptr, ptr %7, align 8, !tbaa !13
  br label %Vec_StrPush.exit

18:                                               ; preds = %12
  %19 = icmp slt i32 %15, 16
  br i1 %19, label %20, label %27

20:                                               ; preds = %18
  %21 = load ptr, ptr %7, align 8, !tbaa !13
  %.not9.i.i = icmp eq ptr %21, null
  br i1 %.not9.i.i, label %24, label %22

22:                                               ; preds = %20
  %23 = tail call dereferenceable_or_null(16) ptr @realloc(ptr noundef nonnull %21, i64 noundef 16) #18
  br label %Vec_StrGrow.exit.i

24:                                               ; preds = %20
  %25 = tail call noalias dereferenceable_or_null(16) ptr @malloc(i64 noundef 16) #16
  br label %Vec_StrGrow.exit.i

Vec_StrGrow.exit.i:                               ; preds = %24, %22
  %26 = phi ptr [ %23, %22 ], [ %25, %24 ]
  store ptr %26, ptr %7, align 8, !tbaa !13
  store i32 16, ptr %4, align 8, !tbaa !8
  br label %Vec_StrPush.exit

27:                                               ; preds = %18
  %28 = shl nuw nsw i32 %15, 1
  %29 = load ptr, ptr %7, align 8, !tbaa !13
  %.not9.i9.i = icmp eq ptr %29, null
  %30 = zext nneg i32 %28 to i64
  br i1 %.not9.i9.i, label %33, label %31

31:                                               ; preds = %27
  %32 = tail call ptr @realloc(ptr noundef nonnull %29, i64 noundef %30) #18
  br label %35

33:                                               ; preds = %27
  %34 = tail call noalias ptr @malloc(i64 noundef %30) #16
  br label %35

35:                                               ; preds = %33, %31
  %36 = phi ptr [ %32, %31 ], [ %34, %33 ]
  store ptr %36, ptr %7, align 8, !tbaa !13
  store i32 %28, ptr %4, align 8, !tbaa !8
  br label %Vec_StrPush.exit

Vec_StrPush.exit:                                 ; preds = %.Vec_StrGrow.exit10_crit_edge.i, %Vec_StrGrow.exit.i, %35
  %37 = phi ptr [ %.pre.i, %.Vec_StrGrow.exit10_crit_edge.i ], [ %36, %35 ], [ %26, %Vec_StrGrow.exit.i ]
  %38 = add nsw i32 %15, 1
  store i32 %38, ptr %5, align 4, !tbaa !14
  %39 = sext i32 %15 to i64
  %40 = getelementptr inbounds i8, ptr %37, i64 %39
  store i8 %14, ptr %40, align 1, !tbaa !3
  %41 = icmp eq i32 %13, 41
  br i1 %41, label %42, label %Wlc_StdinCollectStop.exit.thread

42:                                               ; preds = %Vec_StrPush.exit
  %.val = load i32, ptr %5, align 4, !tbaa !14
  %43 = icmp slt i32 %.val, %3
  br i1 %43, label %Wlc_StdinCollectStop.exit.thread, label %Wlc_StdinCollectStop.exit

Wlc_StdinCollectStop.exit:                        ; preds = %42
  %.val9 = load ptr, ptr %7, align 8, !tbaa !13
  %44 = sext i32 %.val to i64
  %45 = getelementptr inbounds i8, ptr %.val9, i64 %44
  %46 = getelementptr inbounds i8, ptr %45, i64 %11
  %47 = tail call i32 @strncmp(ptr noundef readonly %46, ptr noundef nonnull readonly %0, i64 noundef %10) #19
  %.not.i.not = icmp eq i32 %47, 0
  br i1 %.not.i.not, label %Wlc_StdinCollectStop.exit._crit_edge, label %Wlc_StdinCollectStop.exit.thread

Wlc_StdinCollectStop.exit.thread:                 ; preds = %42, %Wlc_StdinCollectStop.exit, %Vec_StrPush.exit
  %48 = load ptr, ptr @stdin, align 8, !tbaa !33
  %49 = tail call i32 @fgetc(ptr noundef %48)
  %.not = icmp eq i32 %49, -1
  br i1 %.not, label %Wlc_StdinCollectStop.exit.thread.Wlc_StdinCollectStop.exit._crit_edge.loopexit_crit_edge, label %12, !llvm.loop !35

Wlc_StdinCollectStop.exit.thread.Wlc_StdinCollectStop.exit._crit_edge.loopexit_crit_edge: ; preds = %Wlc_StdinCollectStop.exit.thread
  %.pre.pre = load i32, ptr %5, align 4, !tbaa !14
  br label %Wlc_StdinCollectStop.exit._crit_edge

Wlc_StdinCollectStop.exit._crit_edge:             ; preds = %Wlc_StdinCollectStop.exit, %Wlc_StdinCollectStop.exit.thread.Wlc_StdinCollectStop.exit._crit_edge.loopexit_crit_edge
  %.pre = phi i32 [ %.pre.pre, %Wlc_StdinCollectStop.exit.thread.Wlc_StdinCollectStop.exit._crit_edge.loopexit_crit_edge ], [ %.val, %Wlc_StdinCollectStop.exit ]
  %.pre20 = load i32, ptr %4, align 8, !tbaa !8
  %50 = icmp eq i32 %.pre, %.pre20
  br i1 %50, label %52, label %.Vec_StrGrow.exit10_crit_edge.i10

.Vec_StrGrow.exit10_crit_edge.i10:                ; preds = %1, %Wlc_StdinCollectStop.exit._crit_edge
  %51 = phi i32 [ %.pre, %Wlc_StdinCollectStop.exit._crit_edge ], [ 0, %1 ]
  %.pre.i12 = load ptr, ptr %7, align 8, !tbaa !13
  br label %Vec_StrPush.exit16

52:                                               ; preds = %Wlc_StdinCollectStop.exit._crit_edge
  %53 = icmp slt i32 %.pre20, 16
  br i1 %53, label %54, label %61

54:                                               ; preds = %52
  %55 = load ptr, ptr %7, align 8, !tbaa !13
  %.not9.i.i14 = icmp eq ptr %55, null
  br i1 %.not9.i.i14, label %58, label %56

56:                                               ; preds = %54
  %57 = tail call dereferenceable_or_null(16) ptr @realloc(ptr noundef nonnull %55, i64 noundef 16) #18
  br label %Vec_StrGrow.exit.i15

58:                                               ; preds = %54
  %59 = tail call noalias dereferenceable_or_null(16) ptr @malloc(i64 noundef 16) #16
  br label %Vec_StrGrow.exit.i15

Vec_StrGrow.exit.i15:                             ; preds = %58, %56
  %60 = phi ptr [ %57, %56 ], [ %59, %58 ]
  store ptr %60, ptr %7, align 8, !tbaa !13
  store i32 16, ptr %4, align 8, !tbaa !8
  br label %Vec_StrPush.exit16

61:                                               ; preds = %52
  %62 = shl nuw nsw i32 %.pre20, 1
  %63 = load ptr, ptr %7, align 8, !tbaa !13
  %.not9.i9.i13 = icmp eq ptr %63, null
  %64 = zext nneg i32 %62 to i64
  br i1 %.not9.i9.i13, label %67, label %65

65:                                               ; preds = %61
  %66 = tail call ptr @realloc(ptr noundef nonnull %63, i64 noundef %64) #18
  br label %69

67:                                               ; preds = %61
  %68 = tail call noalias ptr @malloc(i64 noundef %64) #16
  br label %69

69:                                               ; preds = %67, %65
  %70 = phi ptr [ %66, %65 ], [ %68, %67 ]
  store ptr %70, ptr %7, align 8, !tbaa !13
  store i32 %62, ptr %4, align 8, !tbaa !8
  br label %Vec_StrPush.exit16

Vec_StrPush.exit16:                               ; preds = %.Vec_StrGrow.exit10_crit_edge.i10, %Vec_StrGrow.exit.i15, %69
  %71 = phi i32 [ %51, %.Vec_StrGrow.exit10_crit_edge.i10 ], [ %.pre, %69 ], [ %.pre, %Vec_StrGrow.exit.i15 ]
  %72 = phi ptr [ %.pre.i12, %.Vec_StrGrow.exit10_crit_edge.i10 ], [ %70, %69 ], [ %60, %Vec_StrGrow.exit.i15 ]
  %73 = add nsw i32 %71, 1
  store i32 %73, ptr %5, align 4, !tbaa !14
  %74 = sext i32 %71 to i64
  %75 = getelementptr inbounds i8, ptr %72, i64 %74
  store i8 0, ptr %75, align 1, !tbaa !3
  ret ptr %4
}